target datalayout = "e-m:e-p270:32:32-p271:32:32-p272:64:64-i64:64-i128:128-f80:128-n8:16:32:64-S128"
target triple = "x86_64-pc-linux-gnu"

%struct.mbedtls_pk_info_t = type { i32, ptr, ptr, ptr, ptr, ptr, ptr, ptr, ptr, ptr, ptr, ptr }
%struct.mbedtls_pk_context = type { ptr, ptr }
%struct.mbedtls_rsa_alt_context = type { ptr, ptr, ptr, ptr }

@mbedtls_rsa_alt_info = external constant %struct.mbedtls_pk_info_t, align 8

; Function Attrs: nounwind uwtable
define hidden i32 @mbedtls_pk_setup_rsa_alt(ptr noundef %0, ptr noundef %1, ptr noundef %2, ptr noundef %3, ptr noundef %4) #0 {
  %6 = alloca i32, align 4
  %7 = alloca ptr, align 8
  %8 = alloca ptr, align 8
  %9 = alloca ptr, align 8
  %10 = alloca ptr, align 8
  %11 = alloca ptr, align 8
  %12 = alloca ptr, align 8
  %13 = alloca ptr, align 8
  %14 = alloca i32, align 4
  store ptr %0, ptr %7, align 8, !tbaa !3
  store ptr %1, ptr %8, align 8, !tbaa !19
  store ptr %2, ptr %9, align 8, !tbaa !19
  store ptr %3, ptr %10, align 8, !tbaa !19
  store ptr %4, ptr %11, align 8, !tbaa !19
  call void @llvm.lifetime.start.p0(i64 8, ptr %12) #5
  call void @llvm.lifetime.start.p0(i64 8, ptr %13) #5
  store ptr @mbedtls_rsa_alt_info, ptr %13, align 8, !tbaa !17
  %15 = load ptr, ptr %7, align 8, !tbaa !3
  %16 = getelementptr inbounds nuw %struct.mbedtls_pk_context, ptr %15, i32 0, i32 0
  %17 = load ptr, ptr %16, align 8, !tbaa !8
  %18 = icmp ne ptr %17, null
  br i1 %18, label %19, label %20

19:                                               ; preds = %5
  store i32 -16000, ptr %6, align 4
  store i32 1, ptr %14, align 4
  br label %48

20:                                               ; preds = %5
  %21 = load ptr, ptr %13, align 8, !tbaa !17
  %22 = getelementptr inbounds nuw %struct.mbedtls_pk_info_t, ptr %21, i32 0, i32 9
  %23 = load ptr, ptr %22, align 8, !tbaa !18
  %24 = call ptr %23()
  %25 = load ptr, ptr %7, align 8, !tbaa !3
  %26 = getelementptr inbounds nuw %struct.mbedtls_pk_context, ptr %25, i32 0, i32 1
  store ptr %24, ptr %26, align 8, !tbaa !11
  %27 = icmp eq ptr %24, null
  br i1 %27, label %28, label %29

28:                                               ; preds = %20
  store i32 -16256, ptr %6, align 4
  store i32 1, ptr %14, align 4
  br label %48

29:                                               ; preds = %20
  %30 = load ptr, ptr %13, align 8, !tbaa !17
  %31 = load ptr, ptr %7, align 8, !tbaa !3
  %32 = getelementptr inbounds nuw %struct.mbedtls_pk_context, ptr %31, i32 0, i32 0
  store ptr %30, ptr %32, align 8, !tbaa !8
  %33 = load ptr, ptr %7, align 8, !tbaa !3
  %34 = getelementptr inbounds nuw %struct.mbedtls_pk_context, ptr %33, i32 0, i32 1
  %35 = load ptr, ptr %34, align 8, !tbaa !11
  store ptr %35, ptr %12, align 8, !tbaa !19
  %36 = load ptr, ptr %8, align 8, !tbaa !19
  %37 = load ptr, ptr %12, align 8, !tbaa !19
  %38 = getelementptr inbounds nuw %struct.mbedtls_rsa_alt_context, ptr %37, i32 0, i32 0
  store ptr %36, ptr %38, align 8, !tbaa !20
  %39 = load ptr, ptr %9, align 8, !tbaa !19
  %40 = load ptr, ptr %12, align 8, !tbaa !19
  %41 = getelementptr inbounds nuw %struct.mbedtls_rsa_alt_context, ptr %40, i32 0, i32 1
  store ptr %39, ptr %41, align 8, !tbaa !22
  %42 = load ptr, ptr %10, align 8, !tbaa !19
  %43 = load ptr, ptr %12, align 8, !tbaa !19
  %44 = getelementptr inbounds nuw %struct.mbedtls_rsa_alt_context, ptr %43, i32 0, i32 2
  store ptr %42, ptr %44, align 8, !tbaa !23
  %45 = load ptr, ptr %11, align 8, !tbaa !19
  %46 = load ptr, ptr %12, align 8, !tbaa !19
  %47 = getelementptr inbounds nuw %struct.mbedtls_rsa_alt_context, ptr %46, i32 0, i32 3
  store ptr %45, ptr %47, align 8, !tbaa !24
  store i32 0, ptr %6, align 4
  store i32 1, ptr %14, align 4
  br label %48

48:                                               ; preds = %29, %28, %19
  call void @llvm.lifetime.end.p0(i64 8, ptr %13) #5
  call void @llvm.lifetime.end.p0(i64 8, ptr %12) #5
  %49 = load i32, ptr %6, align 4
  ret i32 %49
}