; Function Attrs: nounwind uwtable
define hidden range(i32 -16256, 1) i32 @mbedtls_pk_setup_rsa_alt(ptr noundef captures(none) %0, ptr noundef %1, ptr noundef %2, ptr noundef %3, ptr noundef %4) local_unnamed_addr #1 {
  %6 = load ptr, ptr %0, align 8, !tbaa !3
  %.not = icmp eq ptr %6, null
  br i1 %.not, label %7, label %16

7:                                                ; preds = %5
  %8 = load ptr, ptr getelementptr inbounds nuw (i8, ptr @mbedtls_rsa_alt_info, i64 72), align 8, !tbaa !14
  %9 = tail call ptr %8() #7
  %10 = getelementptr inbounds nuw i8, ptr %0, i64 8
  store ptr %9, ptr %10, align 8, !tbaa !13
  %11 = icmp eq ptr %9, null
  br i1 %11, label %16, label %12

12:                                               ; preds = %7
  store ptr @mbedtls_rsa_alt_info, ptr %0, align 8, !tbaa !3
  store ptr %1, ptr %9, align 8, !tbaa !15
  %13 = getelementptr inbounds nuw i8, ptr %9, i64 8
  store ptr %2, ptr %13, align 8, !tbaa !17
  %14 = getelementptr inbounds nuw i8, ptr %9, i64 16
  store ptr %3, ptr %14, align 8, !tbaa !18
  %15 = getelementptr inbounds nuw i8, ptr %9, i64 24
  store ptr %4, ptr %15, align 8, !tbaa !19
  br label %16

16:                                               ; preds = %7, %5, %12
  %.0 = phi i32 [ 0, %12 ], [ -16000, %5 ], [ -16256, %7 ]
  ret i32 %.0
}